target datalayout = "e-m:e-p270:32:32-p271:32:32-p272:64:64-i64:64-i128:128-f80:128-n8:16:32:64-S128"
target triple = "x86_64-pc-linux-gnu"

%struct.ident_t = type { i32, i32, i32, i32, ptr }
%"class.open3d::core::Indexer" = type <{ i64, i64, [5 x %"struct.open3d::core::TensorRef"], [2 x %"struct.open3d::core::TensorRef"], [5 x i8], [2 x i8], i8, [5 x i64], [5 x i64], i64, i8, i8, [6 x i8] }>
%"struct.open3d::core::TensorRef" = type { ptr, i64, i64, [5 x i64], [5 x i64] }

@1 = private unnamed_addr constant %struct.ident_t { i32 0, i32 514, i32 0, i32 22, ptr @0 }, align 8

; Function Attrs: alwaysinline norecurse nounwind ssp uwtable
define internal void @_ZN6open3d4core6kernel18CPUReductionEngine26LaunchReductionParallelDimIiPFiiiEEEvRKNS0_7IndexerET0_.omp_outlined(ptr noalias noundef %0, ptr noalias noundef %1, ptr noundef nonnull align 8 dereferenceable(8) %2, ptr noundef nonnull align 8 dereferenceable(8) %3, ptr noundef nonnull align 8 dereferenceable(842) %4, ptr noundef nonnull align 8 dereferenceable(8) %5) #28 personality ptr @__gxx_personality_v0 {
  %7 = alloca ptr, align 8
  %8 = alloca ptr, align 8
  %9 = alloca ptr, align 8
  %10 = alloca ptr, align 8
  %11 = alloca ptr, align 8
  %12 = alloca ptr, align 8
  %13 = alloca ptr, align 8
  %14 = alloca i64, align 8
  %15 = alloca i64, align 8
  %16 = alloca i64, align 8
  %17 = alloca i64, align 8
  %18 = alloca i64, align 8
  %19 = alloca i64, align 8
  %20 = alloca i64, align 8
  %21 = alloca i32, align 4
  %22 = alloca i64, align 8
  %23 = alloca %"class.open3d::core::Indexer", align 8
  store ptr %0, ptr %7, align 8, !tbaa !211
  store ptr %1, ptr %8, align 8, !tbaa !211
  store ptr %2, ptr %9, align 8, !tbaa !1268
  store ptr %3, ptr %10, align 8, !tbaa !108
  store ptr %4, ptr %11, align 8, !tbaa !138
  store ptr %5, ptr %12, align 8, !tbaa !899
  %24 = load ptr, ptr %9, align 8, !tbaa !1268
  %25 = load ptr, ptr %10, align 8, !tbaa !108
  %26 = load ptr, ptr %11, align 8, !tbaa !138
  %27 = load ptr, ptr %12, align 8, !tbaa !899
  store ptr %26, ptr %13, align 8
  call void @llvm.lifetime.start.p0(i64 8, ptr %14) #6
  call void @llvm.lifetime.start.p0(i64 8, ptr %15) #6
  %28 = load ptr, ptr %24, align 8, !tbaa !108
  %29 = load i64, ptr %25, align 8, !tbaa !17
  %30 = getelementptr inbounds i64, ptr %28, i64 %29
  %31 = load i64, ptr %30, align 8, !tbaa !17
  store i64 %31, ptr %15, align 8, !tbaa !17
  call void @llvm.lifetime.start.p0(i64 8, ptr %16) #6
  %32 = load i64, ptr %15, align 8, !tbaa !17
  %33 = sub nsw i64 %32, 0
  %34 = sdiv i64 %33, 1
  %35 = sub nsw i64 %34, 1
  store i64 %35, ptr %16, align 8, !tbaa !17
  call void @llvm.lifetime.start.p0(i64 8, ptr %17) #6
  store i64 0, ptr %17, align 8, !tbaa !17
  call void @llvm.lifetime.end.p0(i64 8, ptr %17) #6
  %36 = load i64, ptr %15, align 8, !tbaa !17
  %37 = icmp slt i64 0, %36
  br i1 %37, label %38, label %75

38:                                               ; preds = %6
  call void @llvm.lifetime.start.p0(i64 8, ptr %18) #6
  store i64 0, ptr %18, align 8, !tbaa !17
  call void @llvm.lifetime.start.p0(i64 8, ptr %19) #6
  %39 = load i64, ptr %16, align 8, !tbaa !17
  store i64 %39, ptr %19, align 8, !tbaa !17
  call void @llvm.lifetime.start.p0(i64 8, ptr %20) #6
  store i64 1, ptr %20, align 8, !tbaa !17
  call void @llvm.lifetime.start.p0(i64 4, ptr %21) #6
  store i32 0, ptr %21, align 4, !tbaa !166
  call void @llvm.lifetime.start.p0(i64 8, ptr %22) #6
  %40 = load ptr, ptr %7, align 8
  %41 = load i32, ptr %40, align 4, !tbaa !166
  call void @__kmpc_for_static_init_8(ptr @1, i32 %41, i32 34, ptr %21, ptr %18, ptr %19, ptr %20, i64 1, i64 1)
  %42 = load i64, ptr %19, align 8, !tbaa !17
  %43 = load i64, ptr %16, align 8, !tbaa !17
  %44 = icmp sgt i64 %42, %43
  br i1 %44, label %45, label %47

45:                                               ; preds = %38
  %46 = load i64, ptr %16, align 8, !tbaa !17
  br label %49

47:                                               ; preds = %38
  %48 = load i64, ptr %19, align 8, !tbaa !17
  br label %49

49:                                               ; preds = %47, %45
  %50 = phi i64 [ %46, %45 ], [ %48, %47 ]
  store i64 %50, ptr %19, align 8, !tbaa !17
  %51 = load i64, ptr %18, align 8, !tbaa !17
  store i64 %51, ptr %14, align 8, !tbaa !17
  br label %52

52:                                               ; preds = %68, %49
  %53 = load i64, ptr %14, align 8, !tbaa !17
  %54 = load i64, ptr %19, align 8, !tbaa !17
  %55 = icmp sle i64 %53, %54
  br i1 %55, label %57, label %56

56:                                               ; preds = %52
  br label %71

57:                                               ; preds = %52
  %58 = load i64, ptr %14, align 8, !tbaa !17
  %59 = mul nsw i64 %58, 1
  %60 = add nsw i64 0, %59
  store i64 %60, ptr %22, align 8, !tbaa !17
  call void @llvm.lifetime.start.p0(i64 848, ptr %23) #6
  %61 = load ptr, ptr %13, align 8, !tbaa !138
  call void @llvm.memcpy.p0.p0.i64(ptr align 8 %23, ptr align 8 %61, i64 848, i1 false), !tbaa.struct !153
  %62 = load i64, ptr %25, align 8, !tbaa !17
  %63 = load i64, ptr %22, align 8, !tbaa !17
  invoke void @_ZN6open3d4core7Indexer9ShrinkDimElll(ptr noundef nonnull align 8 dereferenceable(842) %23, i64 noundef %62, i64 noundef %63, i64 noundef 1)
          to label %64 unwind label %76

64:                                               ; preds = %57
  %65 = load ptr, ptr %27, align 8, !tbaa !23
  invoke void @_ZN6open3d4core6kernel18CPUReductionEngine27LaunchReductionKernelSerialIiPFiiiEEEvRKNS0_7IndexerET0_(ptr noundef nonnull align 8 dereferenceable(842) %23, ptr noundef %65)
          to label %66 unwind label %76

66:                                               ; preds = %64
  call void @llvm.lifetime.end.p0(i64 848, ptr %23) #6
  br label %67

67:                                               ; preds = %66
  br label %68

68:                                               ; preds = %67
  %69 = load i64, ptr %14, align 8, !tbaa !17
  %70 = add nsw i64 %69, 1
  store i64 %70, ptr %14, align 8, !tbaa !17
  br label %52

71:                                               ; preds = %56
  br label %72

72:                                               ; preds = %71
  %73 = load ptr, ptr %7, align 8
  %74 = load i32, ptr %73, align 4, !tbaa !166
  call void @__kmpc_for_static_fini(ptr @1, i32 %74)
  call void @llvm.lifetime.end.p0(i64 8, ptr %22) #6
  call void @llvm.lifetime.end.p0(i64 4, ptr %21) #6
  call void @llvm.lifetime.end.p0(i64 8, ptr %20) #6
  call void @llvm.lifetime.end.p0(i64 8, ptr %19) #6
  call void @llvm.lifetime.end.p0(i64 8, ptr %18) #6
  br label %75

75:                                               ; preds = %72, %6
  call void @llvm.lifetime.end.p0(i64 8, ptr %16) #6
  call void @llvm.lifetime.end.p0(i64 8, ptr %15) #6
  call void @llvm.lifetime.end.p0(i64 8, ptr %14) #6
  ret void

76:                                               ; preds = %64, %57
  %77 = landingpad { ptr, i32 }
          catch ptr null
  %78 = extractvalue { ptr, i32 } %77, 0
  call void @__clang_call_terminate(ptr %78) #31
  unreachable
}